target datalayout = "e-m:e-p270:32:32-p271:32:32-p272:64:64-i64:64-i128:128-f80:128-n8:16:32:64-S128"
target triple = "x86_64-pc-linux-gnu"

%struct._priv_exr_context_t = type { i8, i8, i8, i8, i8, i8, i8, i8, %struct.exr_attr_string_t, %struct.exr_attr_string_t, ptr, ptr, ptr, ptr, ptr, ptr, ptr, ptr, i32, i32, i32, i32, i32, float, ptr, ptr, ptr, i64, ptr, ptr, i64, i32, i32, i32, i32, %struct._priv_exr_part_t, ptr, ptr, %struct.exr_attribute_list, %union.pthread_mutex_t, i8, i8, [2 x i8], i32 }
%struct.exr_attr_string_t = type { i32, i32, ptr }
%struct._priv_exr_part_t = type { i32, i32, %struct.exr_attribute_list, ptr, ptr, ptr, ptr, ptr, ptr, ptr, ptr, ptr, ptr, ptr, ptr, ptr, ptr, %struct.exr_attr_box2i_t, %struct.exr_attr_box2i_t, i32, i32, i32, float, i32, i32, ptr, ptr, ptr, ptr, i64, i16, i16, i32, i64, i64 }
%struct.exr_attr_box2i_t = type { %struct.exr_attr_v2i_t, %struct.exr_attr_v2i_t }
%struct.exr_attr_v2i_t = type { i32, i32 }
%struct.exr_attribute_list = type { i32, i32, ptr, ptr }
%union.pthread_mutex_t = type { %struct.__pthread_mutex_s }
%struct.__pthread_mutex_s = type { i32, i32, i32, i32, i32, i16, i16, %struct.__pthread_internal_list }
%struct.__pthread_internal_list = type { ptr, ptr }

@.str = private unnamed_addr constant [29 x i8] c"Part index (%d) out of range\00", align 1
@.str.16 = private unnamed_addr constant [28 x i8] c"Invalid zip level specified\00", align 1

; Function Attrs: inlinehint nounwind uwtable
define internal void @internal_exr_unlock(ptr noundef %0) #2 {
  %2 = alloca ptr, align 8
  %3 = alloca ptr, align 8
  store ptr %0, ptr %2, align 8, !tbaa !3
  call void @llvm.lifetime.start.p0(i64 8, ptr %3) #6
  %4 = load ptr, ptr %2, align 8, !tbaa !3
  %5 = ptrtoint ptr %4 to i64
  %6 = inttoptr i64 %5 to ptr
  store ptr %6, ptr %3, align 8, !tbaa !3
  %7 = load ptr, ptr %3, align 8, !tbaa !3
  %8 = getelementptr inbounds nuw %struct._priv_exr_context_t, ptr %7, i32 0, i32 39
  %9 = call i32 @pthread_mutex_unlock(ptr noundef %8) #6
  call void @llvm.lifetime.end.p0(i64 8, ptr %3) #6
  ret void
}

; Function Attrs: inlinehint nounwind uwtable
define internal void @internal_exr_lock(ptr noundef %0) #2 {
  %2 = alloca ptr, align 8
  %3 = alloca ptr, align 8
  store ptr %0, ptr %2, align 8, !tbaa !3
  call void @llvm.lifetime.start.p0(i64 8, ptr %3) #6
  %4 = load ptr, ptr %2, align 8, !tbaa !3
  %5 = ptrtoint ptr %4 to i64
  %6 = inttoptr i64 %5 to ptr
  store ptr %6, ptr %3, align 8, !tbaa !3
  %7 = load ptr, ptr %3, align 8, !tbaa !3
  %8 = getelementptr inbounds nuw %struct._priv_exr_context_t, ptr %7, i32 0, i32 39
  %9 = call i32 @pthread_mutex_lock(ptr noundef %8) #6
  call void @llvm.lifetime.end.p0(i64 8, ptr %3) #6
  ret void
}

; Function Attrs: nounwind uwtable
define i32 @exr_set_zip_compression_level(ptr noundef %0, i32 noundef %1, i32 noundef %2) #0 {
  %4 = alloca i32, align 4
  %5 = alloca ptr, align 8
  %6 = alloca i32, align 4
  %7 = alloca i32, align 4
  %8 = alloca i32, align 4
  %9 = alloca ptr, align 8
  %10 = alloca i32, align 4
  store ptr %0, ptr %5, align 8, !tbaa !3
  store i32 %1, ptr %6, align 4, !tbaa !27
  store i32 %2, ptr %7, align 4, !tbaa !27
  call void @llvm.lifetime.start.p0(i64 4, ptr %8) #6
  call void @llvm.lifetime.start.p0(i64 8, ptr %9) #6
  %11 = load ptr, ptr %5, align 8, !tbaa !3
  %12 = icmp ne ptr %11, null
  br i1 %12, label %14, label %13

13:                                               ; preds = %3
  store i32 2, ptr %4, align 4
  store i32 1, ptr %10, align 4
  br label %78

14:                                               ; preds = %3
  %15 = load ptr, ptr %5, align 8, !tbaa !3
  call void @internal_exr_lock(ptr noundef %15)
  %16 = load i32, ptr %6, align 4, !tbaa !27
  %17 = icmp slt i32 %16, 0
  br i1 %17, label %24, label %18

18:                                               ; preds = %14
  %19 = load i32, ptr %6, align 4, !tbaa !27
  %20 = load ptr, ptr %5, align 8, !tbaa !3
  %21 = getelementptr inbounds nuw %struct._priv_exr_context_t, ptr %20, i32 0, i32 34
  %22 = load i32, ptr %21, align 4, !tbaa !26
  %23 = icmp sge i32 %19, %22
  br i1 %23, label %24, label %32

24:                                               ; preds = %18, %14
  %25 = load ptr, ptr %5, align 8, !tbaa !3
  call void @internal_exr_unlock(ptr noundef %25)
  %26 = load ptr, ptr %5, align 8, !tbaa !3
  %27 = getelementptr inbounds nuw %struct._priv_exr_context_t, ptr %26, i32 0, i32 14
  %28 = load ptr, ptr %27, align 8, !tbaa !29
  %29 = load ptr, ptr %5, align 8, !tbaa !3
  %30 = load i32, ptr %6, align 4, !tbaa !27
  %31 = call i32 (ptr, i32, ptr, ...) %28(ptr noundef %29, i32 noundef 4, ptr noundef @.str, i32 noundef %30)
  store i32 %31, ptr %4, align 4
  store i32 1, ptr %10, align 4
  br label %78

32:                                               ; preds = %18
  %33 = load ptr, ptr %5, align 8, !tbaa !3
  %34 = getelementptr inbounds nuw %struct._priv_exr_context_t, ptr %33, i32 0, i32 37
  %35 = load ptr, ptr %34, align 8, !tbaa !30
  %36 = load i32, ptr %6, align 4, !tbaa !27
  %37 = sext i32 %36 to i64
  %38 = getelementptr inbounds ptr, ptr %35, i64 %37
  %39 = load ptr, ptr %38, align 8, !tbaa !31
  store ptr %39, ptr %9, align 8, !tbaa !31
  %40 = load ptr, ptr %5, align 8, !tbaa !3
  %41 = getelementptr inbounds nuw %struct._priv_exr_context_t, ptr %40, i32 0, i32 0
  %42 = load i8, ptr %41, align 8, !tbaa !25
  %43 = zext i8 %42 to i32
  %44 = icmp ne i32 %43, 1
  br i1 %44, label %45, label %58

45:                                               ; preds = %32
  %46 = load ptr, ptr %5, align 8, !tbaa !3
  %47 = getelementptr inbounds nuw %struct._priv_exr_context_t, ptr %46, i32 0, i32 0
  %48 = load i8, ptr %47, align 8, !tbaa !25
  %49 = zext i8 %48 to i32
  %50 = icmp ne i32 %49, 4
  br i1 %50, label %51, label %58

51:                                               ; preds = %45
  %52 = load ptr, ptr %5, align 8, !tbaa !3
  call void @internal_exr_unlock(ptr noundef %52)
  %53 = load ptr, ptr %5, align 8, !tbaa !3
  %54 = getelementptr inbounds nuw %struct._priv_exr_context_t, ptr %53, i32 0, i32 12
  %55 = load ptr, ptr %54, align 8, !tbaa !10
  %56 = load ptr, ptr %5, align 8, !tbaa !3
  %57 = call i32 %55(ptr noundef %56, i32 noundef 8)
  store i32 %57, ptr %4, align 4
  store i32 1, ptr %10, align 4
  br label %78

58:                                               ; preds = %45, %32
  %59 = load i32, ptr %7, align 4, !tbaa !27
  %60 = icmp sge i32 %59, -1
  br i1 %60, label %61, label %68

61:                                               ; preds = %58
  %62 = load i32, ptr %7, align 4, !tbaa !27
  %63 = icmp slt i32 %62, 10
  br i1 %63, label %64, label %68

64:                                               ; preds = %61
  %65 = load i32, ptr %7, align 4, !tbaa !27
  %66 = load ptr, ptr %9, align 8, !tbaa !31
  %67 = getelementptr inbounds nuw %struct._priv_exr_part_t, ptr %66, i32 0, i32 21
  store i32 %65, ptr %67, align 8, !tbaa !67
  store i32 0, ptr %8, align 4, !tbaa !27
  br label %75

68:                                               ; preds = %61, %58
  %69 = load ptr, ptr %5, align 8, !tbaa !3
  call void @internal_exr_unlock(ptr noundef %69)
  %70 = load ptr, ptr %5, align 8, !tbaa !3
  %71 = getelementptr inbounds nuw %struct._priv_exr_context_t, ptr %70, i32 0, i32 13
  %72 = load ptr, ptr %71, align 8, !tbaa !57
  %73 = load ptr, ptr %5, align 8, !tbaa !3
  %74 = call i32 %72(ptr noundef %73, i32 noundef 3, ptr noundef @.str.16)
  store i32 %74, ptr %4, align 4
  store i32 1, ptr %10, align 4
  br label %78

75:                                               ; preds = %64
  %76 = load ptr, ptr %5, align 8, !tbaa !3
  call void @internal_exr_unlock(ptr noundef %76)
  %77 = load i32, ptr %8, align 4, !tbaa !27
  store i32 %77, ptr %4, align 4
  store i32 1, ptr %10, align 4
  br label %78

78:                                               ; preds = %75, %68, %51, %24, %13
  call void @llvm.lifetime.end.p0(i64 8, ptr %9) #6
  call void @llvm.lifetime.end.p0(i64 4, ptr %8) #6
  %79 = load i32, ptr %4, align 4
  ret i32 %79
}