; Function Attrs: nounwind uwtable
define i32 @exr_set_zip_compression_level(ptr noundef %0, i32 noundef %1, i32 noundef %2) local_unnamed_addr #0 {
  %.not = icmp eq ptr %0, null
  br i1 %.not, label %38, label %4

4:                                                ; preds = %3
  %5 = getelementptr inbounds nuw i8, ptr %0, i64 504
  %6 = tail call i32 @pthread_mutex_lock(ptr noundef nonnull %5) #6
  %7 = icmp slt i32 %1, 0
  br i1 %7, label %11, label %8

8:                                                ; preds = %4
  %9 = getelementptr inbounds nuw i8, ptr %0, i64 196
  %10 = load i32, ptr %9, align 4, !tbaa !23
  %.not30 = icmp slt i32 %1, %10
  br i1 %.not30, label %16, label %11

11:                                               ; preds = %8, %4
  %12 = tail call i32 @pthread_mutex_unlock(ptr noundef nonnull %5) #6
  %13 = getelementptr inbounds nuw i8, ptr %0, i64 72
  %14 = load ptr, ptr %13, align 8, !tbaa !25
  %15 = tail call i32 (ptr, i32, ptr, ...) %14(ptr noundef nonnull %0, i32 noundef 4, ptr noundef nonnull @.str, i32 noundef %1) #6
  br label %38

16:                                               ; preds = %8
  %17 = getelementptr inbounds nuw i8, ptr %0, i64 472
  %18 = load ptr, ptr %17, align 8, !tbaa !26
  %19 = zext nneg i32 %1 to i64
  %20 = getelementptr inbounds nuw ptr, ptr %18, i64 %19
  %21 = load ptr, ptr %20, align 8, !tbaa !27
  %22 = load i8, ptr %0, align 8, !tbaa !22
  switch i8 %22, label %23 [
    i8 1, label %28
    i8 4, label %28
  ]

23:                                               ; preds = %16
  %24 = tail call i32 @pthread_mutex_unlock(ptr noundef nonnull %5) #6
  %25 = getelementptr inbounds nuw i8, ptr %0, i64 56
  %26 = load ptr, ptr %25, align 8, !tbaa !3
  %27 = tail call i32 %26(ptr noundef nonnull %0, i32 noundef 8) #6
  br label %38

28:                                               ; preds = %16, %16
  %29 = add i32 %2, 1
  %or.cond = icmp ult i32 %29, 11
  br i1 %or.cond, label %30, label %33

30:                                               ; preds = %28
  %31 = getelementptr inbounds nuw i8, ptr %21, i64 184
  store i32 %2, ptr %31, align 8, !tbaa !60
  %32 = tail call i32 @pthread_mutex_unlock(ptr noundef nonnull %5) #6
  br label %38

33:                                               ; preds = %28
  %34 = tail call i32 @pthread_mutex_unlock(ptr noundef nonnull %5) #6
  %35 = getelementptr inbounds nuw i8, ptr %0, i64 64
  %36 = load ptr, ptr %35, align 8, !tbaa !51
  %37 = tail call i32 %36(ptr noundef nonnull %0, i32 noundef 3, ptr noundef nonnull @.str.16) #6
  br label %38

38:                                               ; preds = %3, %30, %33, %23, %11
  %.0 = phi i32 [ %15, %11 ], [ %27, %23 ], [ 0, %30 ], [ %37, %33 ], [ 2, %3 ]
  ret i32 %.0
}